target datalayout = "e-m:e-p270:32:32-p271:32:32-p272:64:64-i64:64-i128:128-f80:128-n8:16:32:64-S128"
target triple = "x86_64-pc-linux-gnu"

; Function Attrs: inlinehint nounwind uwtable
define internal void @extend97_int(ptr noundef %0, i32 noundef %1, i32 noundef %2) #3 {
  %4 = alloca ptr, align 8
  %5 = alloca i32, align 4
  %6 = alloca i32, align 4
  %7 = alloca i32, align 4
  store ptr %0, ptr %4, align 8, !tbaa !9
  store i32 %1, ptr %5, align 4, !tbaa !11
  store i32 %2, ptr %6, align 4, !tbaa !11
  call void @llvm.lifetime.start.p0(i64 4, ptr %7) #5
  store i32 1, ptr %7, align 4, !tbaa !11
  br label %8

8:                                                ; preds = %40, %3
  %9 = load i32, ptr %7, align 4, !tbaa !11
  %10 = icmp sle i32 %9, 4
  br i1 %10, label %11, label %43

11:                                               ; preds = %8
  %12 = load ptr, ptr %4, align 8, !tbaa !9
  %13 = load i32, ptr %5, align 4, !tbaa !11
  %14 = load i32, ptr %7, align 4, !tbaa !11
  %15 = add nsw i32 %13, %14
  %16 = sext i32 %15 to i64
  %17 = getelementptr inbounds i32, ptr %12, i64 %16
  %18 = load i32, ptr %17, align 4, !tbaa !11
  %19 = load ptr, ptr %4, align 8, !tbaa !9
  %20 = load i32, ptr %5, align 4, !tbaa !11
  %21 = load i32, ptr %7, align 4, !tbaa !11
  %22 = sub nsw i32 %20, %21
  %23 = sext i32 %22 to i64
  %24 = getelementptr inbounds i32, ptr %19, i64 %23
  store i32 %18, ptr %24, align 4, !tbaa !11
  %25 = load ptr, ptr %4, align 8, !tbaa !9
  %26 = load i32, ptr %6, align 4, !tbaa !11
  %27 = load i32, ptr %7, align 4, !tbaa !11
  %28 = sub nsw i32 %26, %27
  %29 = sub nsw i32 %28, 1
  %30 = sext i32 %29 to i64
  %31 = getelementptr inbounds i32, ptr %25, i64 %30
  %32 = load i32, ptr %31, align 4, !tbaa !11
  %33 = load ptr, ptr %4, align 8, !tbaa !9
  %34 = load i32, ptr %6, align 4, !tbaa !11
  %35 = load i32, ptr %7, align 4, !tbaa !11
  %36 = add nsw i32 %34, %35
  %37 = sub nsw i32 %36, 1
  %38 = sext i32 %37 to i64
  %39 = getelementptr inbounds i32, ptr %33, i64 %38
  store i32 %32, ptr %39, align 4, !tbaa !11
  br label %40

40:                                               ; preds = %11
  %41 = load i32, ptr %7, align 4, !tbaa !11
  %42 = add nsw i32 %41, 1
  store i32 %42, ptr %7, align 4, !tbaa !11
  br label %8, !llvm.loop !98

43:                                               ; preds = %8
  call void @llvm.lifetime.end.p0(i64 4, ptr %7) #5
  ret void
}

; Function Attrs: nounwind uwtable
define internal void @sd_1d97_int(ptr noundef %0, i32 noundef %1, i32 noundef %2) #0 {
  %4 = alloca ptr, align 8
  %5 = alloca i32, align 4
  %6 = alloca i32, align 4
  %7 = alloca i32, align 4
  %8 = alloca i32, align 4
  %9 = alloca i64, align 8
  store ptr %0, ptr %4, align 8, !tbaa !9
  store i32 %1, ptr %5, align 4, !tbaa !11
  store i32 %2, ptr %6, align 4, !tbaa !11
  call void @llvm.lifetime.start.p0(i64 4, ptr %7) #5
  %10 = load i32, ptr %6, align 4, !tbaa !11
  %11 = load i32, ptr %5, align 4, !tbaa !11
  %12 = add nsw i32 %11, 1
  %13 = icmp sle i32 %10, %12
  br i1 %13, label %14, label %40

14:                                               ; preds = %3
  %15 = load i32, ptr %5, align 4, !tbaa !11
  %16 = icmp eq i32 %15, 1
  br i1 %16, label %17, label %28

17:                                               ; preds = %14
  %18 = load ptr, ptr %4, align 8, !tbaa !9
  %19 = getelementptr inbounds i32, ptr %18, i64 1
  %20 = load i32, ptr %19, align 4, !tbaa !11
  %21 = sext i32 %20 to i64
  %22 = mul nsw i64 %21, 53274
  %23 = add nsw i64 %22, 16384
  %24 = ashr i64 %23, 15
  %25 = trunc i64 %24 to i32
  %26 = load ptr, ptr %4, align 8, !tbaa !9
  %27 = getelementptr inbounds i32, ptr %26, i64 1
  store i32 %25, ptr %27, align 4, !tbaa !11
  br label %39

28:                                               ; preds = %14
  %29 = load ptr, ptr %4, align 8, !tbaa !9
  %30 = getelementptr inbounds i32, ptr %29, i64 0
  %31 = load i32, ptr %30, align 4, !tbaa !11
  %32 = sext i32 %31 to i64
  %33 = mul nsw i64 %32, 80621
  %34 = add nsw i64 %33, 32768
  %35 = ashr i64 %34, 16
  %36 = trunc i64 %35 to i32
  %37 = load ptr, ptr %4, align 8, !tbaa !9
  %38 = getelementptr inbounds i32, ptr %37, i64 0
  store i32 %36, ptr %38, align 4, !tbaa !11
  br label %39

39:                                               ; preds = %28, %17
  store i32 1, ptr %8, align 4
  br label %225

40:                                               ; preds = %3
  %41 = load ptr, ptr %4, align 8, !tbaa !9
  %42 = load i32, ptr %5, align 4, !tbaa !11
  %43 = load i32, ptr %6, align 4, !tbaa !11
  call void @extend97_int(ptr noundef %41, i32 noundef %42, i32 noundef %43)
  %44 = load i32, ptr %5, align 4, !tbaa !11
  %45 = add nsw i32 %44, 1
  store i32 %45, ptr %5, align 4, !tbaa !11
  %46 = load i32, ptr %6, align 4, !tbaa !11
  %47 = add nsw i32 %46, 1
  store i32 %47, ptr %6, align 4, !tbaa !11
  %48 = load i32, ptr %5, align 4, !tbaa !11
  %49 = ashr i32 %48, 1
  %50 = sub nsw i32 %49, 2
  store i32 %50, ptr %7, align 4, !tbaa !11
  br label %51

51:                                               ; preds = %98, %40
  %52 = load i32, ptr %7, align 4, !tbaa !11
  %53 = load i32, ptr %6, align 4, !tbaa !11
  %54 = ashr i32 %53, 1
  %55 = add nsw i32 %54, 1
  %56 = icmp slt i32 %52, %55
  br i1 %56, label %57, label %101

57:                                               ; preds = %51
  call void @llvm.lifetime.start.p0(i64 8, ptr %9) #5
  %58 = load ptr, ptr %4, align 8, !tbaa !9
  %59 = load i32, ptr %7, align 4, !tbaa !11
  %60 = mul nsw i32 2, %59
  %61 = sext i32 %60 to i64
  %62 = getelementptr inbounds i32, ptr %58, i64 %61
  %63 = load i32, ptr %62, align 4, !tbaa !11
  %64 = load ptr, ptr %4, align 8, !tbaa !9
  %65 = load i32, ptr %7, align 4, !tbaa !11
  %66 = mul nsw i32 2, %65
  %67 = add nsw i32 %66, 2
  %68 = sext i32 %67 to i64
  %69 = getelementptr inbounds i32, ptr %64, i64 %68
  %70 = load i32, ptr %69, align 4, !tbaa !11
  %71 = add nsw i32 %63, %70
  %72 = sext i32 %71 to i64
  store i64 %72, ptr %9, align 8, !tbaa !92
  %73 = load i64, ptr %9, align 8, !tbaa !92
  %74 = load ptr, ptr %4, align 8, !tbaa !9
  %75 = load i32, ptr %7, align 4, !tbaa !11
  %76 = mul nsw i32 2, %75
  %77 = add nsw i32 %76, 1
  %78 = sext i32 %77 to i64
  %79 = getelementptr inbounds i32, ptr %74, i64 %78
  %80 = load i32, ptr %79, align 4, !tbaa !11
  %81 = sext i32 %80 to i64
  %82 = sub nsw i64 %81, %73
  %83 = trunc i64 %82 to i32
  store i32 %83, ptr %79, align 4, !tbaa !11
  %84 = load i64, ptr %9, align 8, !tbaa !92
  %85 = mul nsw i64 38413, %84
  %86 = add nsw i64 %85, 32768
  %87 = ashr i64 %86, 16
  %88 = load ptr, ptr %4, align 8, !tbaa !9
  %89 = load i32, ptr %7, align 4, !tbaa !11
  %90 = mul nsw i32 2, %89
  %91 = add nsw i32 %90, 1
  %92 = sext i32 %91 to i64
  %93 = getelementptr inbounds i32, ptr %88, i64 %92
  %94 = load i32, ptr %93, align 4, !tbaa !11
  %95 = sext i32 %94 to i64
  %96 = sub nsw i64 %95, %87
  %97 = trunc i64 %96 to i32
  store i32 %97, ptr %93, align 4, !tbaa !11
  call void @llvm.lifetime.end.p0(i64 8, ptr %9) #5
  br label %98

98:                                               ; preds = %57
  %99 = load i32, ptr %7, align 4, !tbaa !11
  %100 = add nsw i32 %99, 1
  store i32 %100, ptr %7, align 4, !tbaa !11
  br label %51, !llvm.loop !94

101:                                              ; preds = %51
  %102 = load i32, ptr %5, align 4, !tbaa !11
  %103 = ashr i32 %102, 1
  %104 = sub nsw i32 %103, 1
  store i32 %104, ptr %7, align 4, !tbaa !11
  br label %105

105:                                              ; preds = %140, %101
  %106 = load i32, ptr %7, align 4, !tbaa !11
  %107 = load i32, ptr %6, align 4, !tbaa !11
  %108 = ashr i32 %107, 1
  %109 = add nsw i32 %108, 1
  %110 = icmp slt i32 %106, %109
  br i1 %110, label %111, label %143

111:                                              ; preds = %105
  %112 = load ptr, ptr %4, align 8, !tbaa !9
  %113 = load i32, ptr %7, align 4, !tbaa !11
  %114 = mul nsw i32 2, %113
  %115 = sub nsw i32 %114, 1
  %116 = sext i32 %115 to i64
  %117 = getelementptr inbounds i32, ptr %112, i64 %116
  %118 = load i32, ptr %117, align 4, !tbaa !11
  %119 = load ptr, ptr %4, align 8, !tbaa !9
  %120 = load i32, ptr %7, align 4, !tbaa !11
  %121 = mul nsw i32 2, %120
  %122 = add nsw i32 %121, 1
  %123 = sext i32 %122 to i64
  %124 = getelementptr inbounds i32, ptr %119, i64 %123
  %125 = load i32, ptr %124, align 4, !tbaa !11
  %126 = add nsw i32 %118, %125
  %127 = sext i32 %126 to i64
  %128 = mul nsw i64 3472, %127
  %129 = add nsw i64 %128, 32768
  %130 = ashr i64 %129, 16
  %131 = load ptr, ptr %4, align 8, !tbaa !9
  %132 = load i32, ptr %7, align 4, !tbaa !11
  %133 = mul nsw i32 2, %132
  %134 = sext i32 %133 to i64
  %135 = getelementptr inbounds i32, ptr %131, i64 %134
  %136 = load i32, ptr %135, align 4, !tbaa !11
  %137 = sext i32 %136 to i64
  %138 = sub nsw i64 %137, %130
  %139 = trunc i64 %138 to i32
  store i32 %139, ptr %135, align 4, !tbaa !11
  br label %140

140:                                              ; preds = %111
  %141 = load i32, ptr %7, align 4, !tbaa !11
  %142 = add nsw i32 %141, 1
  store i32 %142, ptr %7, align 4, !tbaa !11
  br label %105, !llvm.loop !95

143:                                              ; preds = %105
  %144 = load i32, ptr %5, align 4, !tbaa !11
  %145 = ashr i32 %144, 1
  %146 = sub nsw i32 %145, 1
  store i32 %146, ptr %7, align 4, !tbaa !11
  br label %147

147:                                              ; preds = %181, %143
  %148 = load i32, ptr %7, align 4, !tbaa !11
  %149 = load i32, ptr %6, align 4, !tbaa !11
  %150 = ashr i32 %149, 1
  %151 = icmp slt i32 %148, %150
  br i1 %151, label %152, label %184

152:                                              ; preds = %147
  %153 = load ptr, ptr %4, align 8, !tbaa !9
  %154 = load i32, ptr %7, align 4, !tbaa !11
  %155 = mul nsw i32 2, %154
  %156 = sext i32 %155 to i64
  %157 = getelementptr inbounds i32, ptr %153, i64 %156
  %158 = load i32, ptr %157, align 4, !tbaa !11
  %159 = load ptr, ptr %4, align 8, !tbaa !9
  %160 = load i32, ptr %7, align 4, !tbaa !11
  %161 = mul nsw i32 2, %160
  %162 = add nsw i32 %161, 2
  %163 = sext i32 %162 to i64
  %164 = getelementptr inbounds i32, ptr %159, i64 %163
  %165 = load i32, ptr %164, align 4, !tbaa !11
  %166 = add nsw i32 %158, %165
  %167 = sext i32 %166 to i64
  %168 = mul nsw i64 57862, %167
  %169 = add nsw i64 %168, 32768
  %170 = ashr i64 %169, 16
  %171 = load ptr, ptr %4, align 8, !tbaa !9
  %172 = load i32, ptr %7, align 4, !tbaa !11
  %173 = mul nsw i32 2, %172
  %174 = add nsw i32 %173, 1
  %175 = sext i32 %174 to i64
  %176 = getelementptr inbounds i32, ptr %171, i64 %175
  %177 = load i32, ptr %176, align 4, !tbaa !11
  %178 = sext i32 %177 to i64
  %179 = add nsw i64 %178, %170
  %180 = trunc i64 %179 to i32
  store i32 %180, ptr %176, align 4, !tbaa !11
  br label %181

181:                                              ; preds = %152
  %182 = load i32, ptr %7, align 4, !tbaa !11
  %183 = add nsw i32 %182, 1
  store i32 %183, ptr %7, align 4, !tbaa !11
  br label %147, !llvm.loop !96

184:                                              ; preds = %147
  %185 = load i32, ptr %5, align 4, !tbaa !11
  %186 = ashr i32 %185, 1
  store i32 %186, ptr %7, align 4, !tbaa !11
  br label %187

187:                                              ; preds = %221, %184
  %188 = load i32, ptr %7, align 4, !tbaa !11
  %189 = load i32, ptr %6, align 4, !tbaa !11
  %190 = ashr i32 %189, 1
  %191 = icmp slt i32 %188, %190
  br i1 %191, label %192, label %224

192:                                              ; preds = %187
  %193 = load ptr, ptr %4, align 8, !tbaa !9
  %194 = load i32, ptr %7, align 4, !tbaa !11
  %195 = mul nsw i32 2, %194
  %196 = sub nsw i32 %195, 1
  %197 = sext i32 %196 to i64
  %198 = getelementptr inbounds i32, ptr %193, i64 %197
  %199 = load i32, ptr %198, align 4, !tbaa !11
  %200 = load ptr, ptr %4, align 8, !tbaa !9
  %201 = load i32, ptr %7, align 4, !tbaa !11
  %202 = mul nsw i32 2, %201
  %203 = add nsw i32 %202, 1
  %204 = sext i32 %203 to i64
  %205 = getelementptr inbounds i32, ptr %200, i64 %204
  %206 = load i32, ptr %205, align 4, !tbaa !11
  %207 = add nsw i32 %199, %206
  %208 = sext i32 %207 to i64
  %209 = mul nsw i64 29066, %208
  %210 = add nsw i64 %209, 32768
  %211 = ashr i64 %210, 16
  %212 = load ptr, ptr %4, align 8, !tbaa !9
  %213 = load i32, ptr %7, align 4, !tbaa !11
  %214 = mul nsw i32 2, %213
  %215 = sext i32 %214 to i64
  %216 = getelementptr inbounds i32, ptr %212, i64 %215
  %217 = load i32, ptr %216, align 4, !tbaa !11
  %218 = sext i32 %217 to i64
  %219 = add nsw i64 %218, %211
  %220 = trunc i64 %219 to i32
  store i32 %220, ptr %216, align 4, !tbaa !11
  br label %221

221:                                              ; preds = %192
  %222 = load i32, ptr %7, align 4, !tbaa !11
  %223 = add nsw i32 %222, 1
  store i32 %223, ptr %7, align 4, !tbaa !11
  br label %187, !llvm.loop !97

224:                                              ; preds = %187
  store i32 0, ptr %8, align 4
  br label %225

225:                                              ; preds = %224, %39
  call void @llvm.lifetime.end.p0(i64 4, ptr %7) #5
  %226 = load i32, ptr %8, align 4
  switch i32 %226, label %228 [
    i32 0, label %227
    i32 1, label %227
  ]

227:                                              ; preds = %225, %225
  ret void

228:                                              ; preds = %225
  unreachable
}