; Function Attrs: nofree norecurse nosync nounwind memory(argmem: readwrite) uwtable
define internal fastcc void @sd_1d97_int(ptr noundef captures(none) %0, i32 noundef range(i32 0, 256) %1, i32 noundef %2) unnamed_addr #5 {
  %4 = add nuw nsw i32 %1, 1
  %.not = icmp sgt i32 %2, %4
  br i1 %.not, label %22, label %5

5:                                                ; preds = %3
  %6 = icmp eq i32 %1, 1
  br i1 %6, label %7, label %15

7:                                                ; preds = %5
  %8 = getelementptr inbounds nuw i8, ptr %0, i64 4
  %9 = load i32, ptr %8, align 4, !tbaa !12
  %10 = sext i32 %9 to i64
  %11 = mul nsw i64 %10, 53274
  %12 = add nsw i64 %11, 16384
  %13 = lshr i64 %12, 15
  %14 = trunc i64 %13 to i32
  store i32 %14, ptr %8, align 4, !tbaa !12
  br label %.loopexit

15:                                               ; preds = %5
  %16 = load i32, ptr %0, align 4, !tbaa !12
  %17 = sext i32 %16 to i64
  %18 = mul nsw i64 %17, 80621
  %19 = add nsw i64 %18, 32768
  %20 = lshr i64 %19, 16
  %21 = trunc i64 %20 to i32
  store i32 %21, ptr %0, align 4, !tbaa !12
  br label %.loopexit

22:                                               ; preds = %3
  %invariant.gep.i = getelementptr i8, ptr %0, i64 -4
  %23 = zext nneg i32 %2 to i64
  %24 = zext nneg i32 %1 to i64
  %invariant.gep15.i = getelementptr inbounds nuw i32, ptr %0, i64 %24
  %25 = getelementptr i32, ptr %0, i64 %23
  %invariant.gep17.i = getelementptr i32, ptr %invariant.gep.i, i64 %23
  br label %26

26:                                               ; preds = %26, %22
  %indvars.iv.i = phi i64 [ 1, %22 ], [ %indvars.iv.next.i, %26 ]
  %gep16.i = getelementptr inbounds nuw i32, ptr %invariant.gep15.i, i64 %indvars.iv.i
  %27 = load i32, ptr %gep16.i, align 4, !tbaa !12
  %28 = sub nsw i64 %24, %indvars.iv.i
  %29 = getelementptr inbounds i32, ptr %0, i64 %28
  store i32 %27, ptr %29, align 4, !tbaa !12
  %30 = xor i64 %indvars.iv.i, -1
  %31 = getelementptr i32, ptr %25, i64 %30
  %32 = load i32, ptr %31, align 4, !tbaa !12
  %gep18.i = getelementptr i32, ptr %invariant.gep17.i, i64 %indvars.iv.i
  store i32 %32, ptr %gep18.i, align 4, !tbaa !12
  %indvars.iv.next.i = add nuw nsw i64 %indvars.iv.i, 1
  %exitcond.not.i = icmp eq i64 %indvars.iv.next.i, 5
  br i1 %exitcond.not.i, label %extend97_int.exit, label %26, !llvm.loop !73

extend97_int.exit:                                ; preds = %26
  %33 = add nuw nsw i32 %2, 1
  %34 = lshr i32 %4, 1
  %35 = add nsw i32 %34, -2
  %36 = lshr i32 %33, 1
  %.not5964 = icmp sgt i32 %35, %36
  br i1 %.not5964, label %._crit_edge, label %.lr.ph.preheader

.lr.ph.preheader:                                 ; preds = %extend97_int.exit
  %37 = add nuw nsw i64 %24, 1
  %38 = lshr i64 %37, 1
  %39 = add nsw i64 %38, -2
  %40 = trunc nuw nsw i64 %38 to i32
  %41 = add nuw nsw i32 %36, %40
  %42 = add nuw nsw i32 %41, 1
  %43 = sub nsw i32 %42, %34
  br label %.lr.ph

.lr.ph:                                           ; preds = %.lr.ph.preheader, %.lr.ph
  %indvars.iv = phi i64 [ %39, %.lr.ph.preheader ], [ %indvars.iv.next, %.lr.ph ]
  %.idx = shl nsw i64 %indvars.iv, 3
  %44 = getelementptr inbounds i8, ptr %0, i64 %.idx
  %45 = load i32, ptr %44, align 4, !tbaa !12
  %46 = getelementptr i8, ptr %44, i64 8
  %47 = load i32, ptr %46, align 4, !tbaa !12
  %48 = add nsw i32 %47, %45
  %49 = sext i32 %48 to i64
  %50 = getelementptr i8, ptr %44, i64 4
  %51 = load i32, ptr %50, align 4, !tbaa !12
  %52 = mul nsw i64 %49, 38413
  %53 = add nsw i64 %52, 32768
  %54 = lshr i64 %53, 16
  %55 = trunc i64 %54 to i32
  %56 = add i32 %48, %55
  %57 = sub i32 %51, %56
  store i32 %57, ptr %50, align 4, !tbaa !12
  %indvars.iv.next = add nsw i64 %indvars.iv, 1
  %lftr.wideiv = trunc i64 %indvars.iv.next to i32
  %exitcond.not = icmp eq i32 %43, %lftr.wideiv
  br i1 %exitcond.not, label %._crit_edge, label %.lr.ph, !llvm.loop !97

._crit_edge:                                      ; preds = %.lr.ph, %extend97_int.exit
  %58 = add nsw i32 %34, -1
  %.not6066 = icmp sgt i32 %58, %36
  br i1 %.not6066, label %.preheader63, label %.lr.ph69.preheader

.lr.ph69.preheader:                               ; preds = %._crit_edge
  %59 = add nuw nsw i64 %24, 1
  %60 = lshr i64 %59, 1
  %61 = add nsw i64 %60, -1
  %62 = trunc nuw nsw i64 %60 to i32
  %63 = add nuw nsw i32 %36, %62
  %64 = add nuw nsw i32 %63, 1
  %65 = sub nsw i32 %64, %34
  %wide.trip.count = zext i32 %65 to i64
  br label %.lr.ph69

.preheader63:                                     ; preds = %.lr.ph69, %._crit_edge
  %.not74 = icmp samesign ugt i32 %34, %36
  br i1 %.not74, label %.preheader, label %.lr.ph71.preheader

.lr.ph71.preheader:                               ; preds = %.preheader63
  %66 = add nuw nsw i64 %24, 1
  %67 = lshr i64 %66, 1
  %68 = add nsw i64 %67, -1
  %69 = trunc nuw nsw i64 %67 to i32
  %70 = add nuw nsw i32 %36, %69
  %71 = sub nuw nsw i32 %70, %34
  %wide.trip.count80 = zext nneg i32 %71 to i64
  br label %.lr.ph71

.lr.ph69:                                         ; preds = %.lr.ph69.preheader, %.lr.ph69
  %indvars.iv75 = phi i64 [ %61, %.lr.ph69.preheader ], [ %indvars.iv.next76, %.lr.ph69 ]
  %.idx86 = shl i64 %indvars.iv75, 3
  %72 = getelementptr i8, ptr %0, i64 %.idx86
  %73 = getelementptr i8, ptr %72, i64 -4
  %74 = load i32, ptr %73, align 4, !tbaa !12
  %75 = getelementptr i8, ptr %72, i64 4
  %76 = load i32, ptr %75, align 4, !tbaa !12
  %77 = add nsw i32 %76, %74
  %78 = sext i32 %77 to i64
  %79 = mul nsw i64 %78, 3472
  %80 = add nsw i64 %79, 32768
  %81 = lshr i64 %80, 16
  %82 = load i32, ptr %72, align 4, !tbaa !12
  %83 = trunc i64 %81 to i32
  %84 = sub i32 %82, %83
  store i32 %84, ptr %72, align 4, !tbaa !12
  %indvars.iv.next76 = add nsw i64 %indvars.iv75, 1
  %exitcond77.not = icmp eq i64 %indvars.iv.next76, %wide.trip.count
  br i1 %exitcond77.not, label %.preheader63, label %.lr.ph69, !llvm.loop !98

.preheader:                                       ; preds = %.lr.ph71, %.preheader63
  %85 = icmp samesign ult i32 %34, %36
  br i1 %85, label %.lr.ph73.preheader, label %.loopexit

.lr.ph73.preheader:                               ; preds = %.preheader
  %86 = add nuw nsw i64 %24, 1
  %87 = lshr i64 %86, 1
  %88 = trunc nuw nsw i64 %87 to i32
  %89 = add nuw nsw i32 %36, %88
  %90 = sub nsw i32 %89, %34
  %wide.trip.count84 = zext i32 %90 to i64
  br label %.lr.ph73

.lr.ph71:                                         ; preds = %.lr.ph71.preheader, %.lr.ph71
  %indvars.iv78 = phi i64 [ %68, %.lr.ph71.preheader ], [ %indvars.iv.next79, %.lr.ph71 ]
  %.idx87 = shl nsw i64 %indvars.iv78, 3
  %91 = getelementptr inbounds i8, ptr %0, i64 %.idx87
  %92 = load i32, ptr %91, align 4, !tbaa !12
  %93 = getelementptr i8, ptr %91, i64 8
  %94 = load i32, ptr %93, align 4, !tbaa !12
  %95 = add nsw i32 %94, %92
  %96 = sext i32 %95 to i64
  %97 = mul nsw i64 %96, 57862
  %98 = add nsw i64 %97, 32768
  %99 = lshr i64 %98, 16
  %100 = getelementptr i8, ptr %91, i64 4
  %101 = load i32, ptr %100, align 4, !tbaa !12
  %102 = trunc i64 %99 to i32
  %103 = add i32 %101, %102
  store i32 %103, ptr %100, align 4, !tbaa !12
  %indvars.iv.next79 = add nsw i64 %indvars.iv78, 1
  %exitcond81.not = icmp eq i64 %indvars.iv.next79, %wide.trip.count80
  br i1 %exitcond81.not, label %.preheader, label %.lr.ph71, !llvm.loop !99

.lr.ph73:                                         ; preds = %.lr.ph73.preheader, %.lr.ph73
  %indvars.iv82 = phi i64 [ %87, %.lr.ph73.preheader ], [ %indvars.iv.next83, %.lr.ph73 ]
  %.idx88 = shl i64 %indvars.iv82, 3
  %104 = getelementptr i8, ptr %0, i64 %.idx88
  %105 = getelementptr i8, ptr %104, i64 -4
  %106 = load i32, ptr %105, align 4, !tbaa !12
  %107 = getelementptr inbounds nuw i8, ptr %104, i64 4
  %108 = load i32, ptr %107, align 4, !tbaa !12
  %109 = add nsw i32 %108, %106
  %110 = sext i32 %109 to i64
  %111 = mul nsw i64 %110, 29066
  %112 = add nsw i64 %111, 32768
  %113 = lshr i64 %112, 16
  %114 = load i32, ptr %104, align 4, !tbaa !12
  %115 = trunc i64 %113 to i32
  %116 = add i32 %114, %115
  store i32 %116, ptr %104, align 4, !tbaa !12
  %indvars.iv.next83 = add nuw nsw i64 %indvars.iv82, 1
  %exitcond85.not = icmp eq i64 %indvars.iv.next83, %wide.trip.count84
  br i1 %exitcond85.not, label %.loopexit, label %.lr.ph73, !llvm.loop !100

.loopexit:                                        ; preds = %.lr.ph73, %.preheader, %7, %15
  ret void
}